; Function Attrs: mustprogress nofree norecurse nounwind willreturn uwtable
define hidden void @_ZN8G1CMTask16setup_for_regionEP12G1HeapRegion(ptr nocapture noundef nonnull align 8 dereferenceable(376) %0, ptr noundef %1) local_unnamed_addr #14 align 2 {
  %3 = getelementptr inbounds i8, ptr %0, i64 136
  store ptr %1, ptr %3, align 8
  %4 = load ptr, ptr %1, align 8
  %5 = getelementptr inbounds i8, ptr %0, i64 144
  store ptr %4, ptr %5, align 8
  %6 = getelementptr inbounds i8, ptr %0, i64 32
  %7 = load ptr, ptr %6, align 8
  %8 = getelementptr inbounds i8, ptr %1, i64 48
  %9 = load i32, ptr %8, align 8
  %10 = getelementptr inbounds i8, ptr %7, i64 1832
  %11 = load ptr, ptr %10, align 8
  %12 = zext i32 %9 to i64
  %13 = getelementptr inbounds ptr, ptr %11, i64 %12
  %14 = load volatile ptr, ptr %13, align 8
  %15 = icmp eq ptr %14, %4
  br i1 %15, label %.sink.split.i, label %16

16:                                               ; preds = %2
  %17 = getelementptr inbounds i8, ptr %0, i64 152
  %18 = load ptr, ptr %17, align 8
  %.not.i = icmp ult ptr %14, %18
  br i1 %.not.i, label %.sink.split.i, label %_ZN8G1CMTask19update_region_limitEv.exit

.sink.split.i:                                    ; preds = %16, %2
  %.sink.i = phi ptr [ %4, %2 ], [ %14, %16 ]
  store ptr %.sink.i, ptr %5, align 8
  br label %_ZN8G1CMTask19update_region_limitEv.exit

_ZN8G1CMTask19update_region_limitEv.exit:         ; preds = %16, %.sink.split.i
  %19 = getelementptr inbounds i8, ptr %0, i64 152
  store ptr %14, ptr %19, align 8
  ret void
}